target datalayout = "e-m:e-p270:32:32-p271:32:32-p272:64:64-i64:64-i128:128-f80:128-n8:16:32:64-S128"
target triple = "x86_64-pc-linux-gnu"

%struct.FWCfgState = type { %struct.SysBusDevice, i16, [2 x ptr], ptr, ptr, i16, i32, %struct.Notifier, i32, i8, i64, ptr, %struct.MemoryRegion, i8, i64, i64, i64 }
%struct.SysBusDevice = type { %struct.DeviceState, i32, [32 x %struct.anon], i32, [32 x i32] }
%struct.DeviceState = type { %struct.Object, ptr, ptr, i8, i8, i64, i32, i8, ptr, %struct.NamedGPIOListHead, %struct.NamedClockListHead, %struct.BusStateHead, i32, i32, i32, %struct.ResettableState, ptr, %struct.MemReentrancyGuard }
%struct.Object = type { ptr, ptr, ptr, i32, ptr }
%struct.NamedGPIOListHead = type { ptr }
%struct.NamedClockListHead = type { ptr }
%struct.BusStateHead = type { ptr }
%struct.ResettableState = type { i32, i8, i8 }
%struct.MemReentrancyGuard = type { i8 }
%struct.anon = type { i64, ptr }
%struct.Notifier = type { ptr, %struct.anon.0 }
%struct.anon.0 = type { ptr, ptr }
%struct.MemoryRegion = type { %struct.Object, i8, i8, i8, i8, i8, i8, i8, i8, i8, i8, ptr, ptr, ptr, ptr, ptr, ptr, i32, i128, i64, ptr, i64, i8, i8, i8, i8, ptr, i64, i32, %union.anon, %union.anon.1, %union.anon.2, ptr, i32, ptr, ptr, i8 }
%union.anon = type { %struct.QTailQLink }
%struct.QTailQLink = type { ptr, ptr }
%union.anon.1 = type { %struct.QTailQLink }
%union.anon.2 = type { %struct.QTailQLink }
%struct.FWCfgEntry = type { i32, i8, ptr, ptr, ptr, ptr }
%struct.timeval = type { i64, i64 }

@.str.1 = private unnamed_addr constant [26 x i8] c"../qemu/hw/nvram/fw_cfg.c\00", align 1
@trace_events_enabled_count = external global i32, align 4
@message_with_timestamp = external global i8, align 1
@qemu_loglevel = external global i32, align 4
@.str.84 = private unnamed_addr constant [34 x i8] c"size > 0 && size <= sizeof(value)\00", align 1
@__PRETTY_FUNCTION__.fw_cfg_data_read = private unnamed_addr constant [56 x i8] c"uint64_t fw_cfg_data_read(void *, hwaddr, unsigned int)\00", align 1
@_TRACE_FW_CFG_READ_DSTATE = external global i16, align 2
@.str.85 = private unnamed_addr constant [37 x i8] c"%d@%zu.%06zu:fw_cfg_read %p = 0x%lx\0A\00", align 1
@.str.86 = private unnamed_addr constant [24 x i8] c"fw_cfg_read %p = 0x%lx\0A\00", align 1

; Function Attrs: inlinehint nounwind sspstrong uwtable
define internal zeroext i1 @qemu_loglevel_mask(i32 noundef %0) #2 {
  %2 = alloca i32, align 4
  store i32 %0, ptr %2, align 4
  %3 = load i32, ptr @qemu_loglevel, align 4
  %4 = load i32, ptr %2, align 4
  %5 = and i32 %3, %4
  %6 = icmp ne i32 %5, 0
  ret i1 %6
}

; Function Attrs: inlinehint nounwind sspstrong uwtable
define internal void @_nocheck__trace_fw_cfg_read(ptr noundef %0, i64 noundef %1) #2 {
  %3 = alloca ptr, align 8
  %4 = alloca i64, align 8
  %5 = alloca %struct.timeval, align 8
  store ptr %0, ptr %3, align 8
  store i64 %1, ptr %4, align 8
  %6 = load i32, ptr @trace_events_enabled_count, align 4
  %7 = icmp ne i32 %6, 0
  %8 = xor i1 %7, true
  %9 = xor i1 %8, true
  %10 = zext i1 %9 to i32
  %11 = sext i32 %10 to i64
  %12 = call i64 @llvm.expect.i64(i64 %11, i64 0)
  %13 = icmp ne i64 %12, 0
  br i1 %13, label %14, label %36

14:                                               ; preds = %2
  %15 = load i16, ptr @_TRACE_FW_CFG_READ_DSTATE, align 2
  %16 = zext i16 %15 to i32
  %17 = icmp ne i32 %16, 0
  br i1 %17, label %18, label %36

18:                                               ; preds = %14
  %19 = call zeroext i1 @qemu_loglevel_mask(i32 noundef 32768)
  br i1 %19, label %20, label %36

20:                                               ; preds = %18
  %21 = load i8, ptr @message_with_timestamp, align 1, !range !4, !noundef !5
  %22 = trunc i8 %21 to i1
  br i1 %22, label %23, label %32

23:                                               ; preds = %20
  call void @llvm.lifetime.start.p0(i64 16, ptr %5) #18
  call void @llvm.memset.p0.i64(ptr align 8 %5, i8 0, i64 16, i1 false), !annotation !6
  %24 = call i32 @gettimeofday(ptr noundef %5, ptr noundef null) #18
  %25 = call i32 @qemu_get_thread_id()
  %26 = getelementptr inbounds nuw %struct.timeval, ptr %5, i32 0, i32 0
  %27 = load i64, ptr %26, align 8
  %28 = getelementptr inbounds nuw %struct.timeval, ptr %5, i32 0, i32 1
  %29 = load i64, ptr %28, align 8
  %30 = load ptr, ptr %3, align 8
  %31 = load i64, ptr %4, align 8
  call void (ptr, ...) @qemu_log(ptr noundef @.str.85, i32 noundef %25, i64 noundef %27, i64 noundef %29, ptr noundef %30, i64 noundef %31)
  call void @llvm.lifetime.end.p0(i64 16, ptr %5) #18
  br label %35

32:                                               ; preds = %20
  %33 = load ptr, ptr %3, align 8
  %34 = load i64, ptr %4, align 8
  call void (ptr, ...) @qemu_log(ptr noundef @.str.86, ptr noundef %33, i64 noundef %34)
  br label %35

35:                                               ; preds = %32, %23
  br label %36

36:                                               ; preds = %35, %18, %14, %2
  ret void
}

; Function Attrs: inlinehint nounwind sspstrong uwtable
define internal void @trace_fw_cfg_read(ptr noundef %0, i64 noundef %1) #2 {
  %3 = alloca ptr, align 8
  %4 = alloca i64, align 8
  store ptr %0, ptr %3, align 8
  store i64 %1, ptr %4, align 8
  %5 = load ptr, ptr %3, align 8
  %6 = load i64, ptr %4, align 8
  call void @_nocheck__trace_fw_cfg_read(ptr noundef %5, i64 noundef %6)
  ret void
}

; Function Attrs: nounwind sspstrong uwtable
define internal i64 @fw_cfg_data_read(ptr noundef %0, i64 noundef %1, i32 noundef %2) #0 {
  %4 = alloca ptr, align 8
  %5 = alloca i64, align 8
  %6 = alloca i32, align 4
  %7 = alloca ptr, align 8
  %8 = alloca i32, align 4
  %9 = alloca ptr, align 8
  %10 = alloca i64, align 8
  store ptr %0, ptr %4, align 8
  store i64 %1, ptr %5, align 8
  store i32 %2, ptr %6, align 4
  call void @llvm.lifetime.start.p0(i64 8, ptr %7) #18
  %11 = load ptr, ptr %4, align 8
  store ptr %11, ptr %7, align 8
  call void @llvm.lifetime.start.p0(i64 4, ptr %8) #18
  %12 = load ptr, ptr %7, align 8
  %13 = getelementptr inbounds nuw %struct.FWCfgState, ptr %12, i32 0, i32 5
  %14 = load i16, ptr %13, align 16
  %15 = zext i16 %14 to i32
  %16 = and i32 %15, 32768
  %17 = icmp ne i32 %16, 0
  %18 = xor i1 %17, true
  %19 = xor i1 %18, true
  %20 = zext i1 %19 to i32
  store i32 %20, ptr %8, align 4
  call void @llvm.lifetime.start.p0(i64 8, ptr %9) #18
  %21 = load ptr, ptr %7, align 8
  %22 = getelementptr inbounds nuw %struct.FWCfgState, ptr %21, i32 0, i32 5
  %23 = load i16, ptr %22, align 16
  %24 = zext i16 %23 to i32
  %25 = icmp eq i32 %24, 65535
  br i1 %25, label %26, label %27

26:                                               ; preds = %3
  br label %41

27:                                               ; preds = %3
  %28 = load ptr, ptr %7, align 8
  %29 = getelementptr inbounds nuw %struct.FWCfgState, ptr %28, i32 0, i32 2
  %30 = load i32, ptr %8, align 4
  %31 = sext i32 %30 to i64
  %32 = getelementptr inbounds [2 x ptr], ptr %29, i64 0, i64 %31
  %33 = load ptr, ptr %32, align 8
  %34 = load ptr, ptr %7, align 8
  %35 = getelementptr inbounds nuw %struct.FWCfgState, ptr %34, i32 0, i32 5
  %36 = load i16, ptr %35, align 16
  %37 = zext i16 %36 to i32
  %38 = and i32 %37, -49153
  %39 = sext i32 %38 to i64
  %40 = getelementptr inbounds %struct.FWCfgEntry, ptr %33, i64 %39
  br label %41

41:                                               ; preds = %27, %26
  %42 = phi ptr [ null, %26 ], [ %40, %27 ]
  store ptr %42, ptr %9, align 8
  call void @llvm.lifetime.start.p0(i64 8, ptr %10) #18
  store i64 0, ptr %10, align 8
  %43 = load i32, ptr %6, align 4
  %44 = icmp ugt i32 %43, 0
  br i1 %44, label %45, label %50

45:                                               ; preds = %41
  %46 = load i32, ptr %6, align 4
  %47 = zext i32 %46 to i64
  %48 = icmp ule i64 %47, 8
  br i1 %48, label %49, label %50

49:                                               ; preds = %45
  br label %51

50:                                               ; preds = %45, %41
  call void @__assert_fail(ptr noundef @.str.84, ptr noundef @.str.1, i32 noundef 301, ptr noundef @__PRETTY_FUNCTION__.fw_cfg_data_read) #19
  unreachable

51:                                               ; preds = %49
  %52 = load ptr, ptr %7, align 8
  %53 = getelementptr inbounds nuw %struct.FWCfgState, ptr %52, i32 0, i32 5
  %54 = load i16, ptr %53, align 16
  %55 = zext i16 %54 to i32
  %56 = icmp ne i32 %55, 65535
  br i1 %56, label %57, label %106

57:                                               ; preds = %51
  %58 = load ptr, ptr %9, align 8
  %59 = getelementptr inbounds nuw %struct.FWCfgEntry, ptr %58, i32 0, i32 2
  %60 = load ptr, ptr %59, align 8
  %61 = icmp ne ptr %60, null
  br i1 %61, label %62, label %106

62:                                               ; preds = %57
  %63 = load ptr, ptr %7, align 8
  %64 = getelementptr inbounds nuw %struct.FWCfgState, ptr %63, i32 0, i32 6
  %65 = load i32, ptr %64, align 4
  %66 = load ptr, ptr %9, align 8
  %67 = getelementptr inbounds nuw %struct.FWCfgEntry, ptr %66, i32 0, i32 0
  %68 = load i32, ptr %67, align 8
  %69 = icmp ult i32 %65, %68
  br i1 %69, label %70, label %106

70:                                               ; preds = %62
  br label %71

71:                                               ; preds = %98, %70
  %72 = load i64, ptr %10, align 8
  %73 = shl i64 %72, 8
  %74 = load ptr, ptr %9, align 8
  %75 = getelementptr inbounds nuw %struct.FWCfgEntry, ptr %74, i32 0, i32 2
  %76 = load ptr, ptr %75, align 8
  %77 = load ptr, ptr %7, align 8
  %78 = getelementptr inbounds nuw %struct.FWCfgState, ptr %77, i32 0, i32 6
  %79 = load i32, ptr %78, align 4
  %80 = add i32 %79, 1
  store i32 %80, ptr %78, align 4
  %81 = zext i32 %79 to i64
  %82 = getelementptr inbounds nuw i8, ptr %76, i64 %81
  %83 = load i8, ptr %82, align 1
  %84 = zext i8 %83 to i64
  %85 = or i64 %73, %84
  store i64 %85, ptr %10, align 8
  br label %86

86:                                               ; preds = %71
  %87 = load i32, ptr %6, align 4
  %88 = add i32 %87, -1
  store i32 %88, ptr %6, align 4
  %89 = icmp ne i32 %88, 0
  br i1 %89, label %90, label %98

90:                                               ; preds = %86
  %91 = load ptr, ptr %7, align 8
  %92 = getelementptr inbounds nuw %struct.FWCfgState, ptr %91, i32 0, i32 6
  %93 = load i32, ptr %92, align 4
  %94 = load ptr, ptr %9, align 8
  %95 = getelementptr inbounds nuw %struct.FWCfgEntry, ptr %94, i32 0, i32 0
  %96 = load i32, ptr %95, align 8
  %97 = icmp ult i32 %93, %96
  br label %98

98:                                               ; preds = %90, %86
  %99 = phi i1 [ false, %86 ], [ %97, %90 ]
  br i1 %99, label %71, label %100, !llvm.loop !14

100:                                              ; preds = %98
  %101 = load i32, ptr %6, align 4
  %102 = mul i32 8, %101
  %103 = load i64, ptr %10, align 8
  %104 = zext i32 %102 to i64
  %105 = shl i64 %103, %104
  store i64 %105, ptr %10, align 8
  br label %106

106:                                              ; preds = %100, %62, %57, %51
  %107 = load ptr, ptr %7, align 8
  %108 = load i64, ptr %10, align 8
  call void @trace_fw_cfg_read(ptr noundef %107, i64 noundef %108)
  %109 = load i64, ptr %10, align 8
  call void @llvm.lifetime.end.p0(i64 8, ptr %10) #18
  call void @llvm.lifetime.end.p0(i64 8, ptr %9) #18
  call void @llvm.lifetime.end.p0(i64 4, ptr %8) #18
  call void @llvm.lifetime.end.p0(i64 8, ptr %7) #18
  ret i64 %109
}