; Function Attrs: nounwind sspstrong uwtable
define internal i64 @fw_cfg_data_read(ptr noundef %0, i64 %1, i32 noundef %2) #2 {
  %4 = alloca %struct.timeval, align 8
  %5 = getelementptr inbounds nuw i8, ptr %0, i64 848
  %6 = load i16, ptr %5, align 16
  %7 = icmp eq i16 %6, -1
  br i1 %7, label %8, label %.thread

8:                                                ; preds = %3
  %9 = add i32 %2, -1
  %or.cond = icmp ult i32 %9, 8
  br i1 %or.cond, label %43, label %18

.thread:                                          ; preds = %3
  %.lobit = lshr i16 %6, 15
  %10 = getelementptr inbounds nuw i8, ptr %0, i64 816
  %11 = zext nneg i16 %.lobit to i64
  %12 = getelementptr inbounds nuw [2 x ptr], ptr %10, i64 0, i64 %11
  %13 = load ptr, ptr %12, align 8
  %14 = and i16 %6, 16383
  %15 = zext nneg i16 %14 to i64
  %16 = getelementptr inbounds nuw %struct.FWCfgEntry, ptr %13, i64 %15
  %17 = add i32 %2, -1
  %or.cond30 = icmp ult i32 %17, 8
  br i1 %or.cond30, label %19, label %18

18:                                               ; preds = %.thread, %8
  tail call void @__assert_fail(ptr noundef nonnull @.str.84, ptr noundef nonnull @.str.1, i32 noundef 301, ptr noundef nonnull @__PRETTY_FUNCTION__.fw_cfg_data_read) #19
  unreachable

19:                                               ; preds = %.thread
  %20 = getelementptr inbounds nuw i8, ptr %16, i64 8
  %21 = load ptr, ptr %20, align 8
  %.not28 = icmp eq ptr %21, null
  br i1 %.not28, label %43, label %22

22:                                               ; preds = %19
  %23 = getelementptr inbounds nuw i8, ptr %0, i64 852
  %24 = load i32, ptr %23, align 4
  %25 = load i32, ptr %16, align 8
  %26 = icmp ult i32 %24, %25
  br i1 %26, label %.preheader, label %43

.preheader:                                       ; preds = %22, %37
  %27 = phi i32 [ %30, %37 ], [ %24, %22 ]
  %.024 = phi i32 [ %36, %37 ], [ %2, %22 ]
  %.1 = phi i64 [ %35, %37 ], [ 0, %22 ]
  %28 = shl i64 %.1, 8
  %29 = load ptr, ptr %20, align 8
  %30 = add nuw i32 %27, 1
  store i32 %30, ptr %23, align 4
  %31 = zext i32 %27 to i64
  %32 = getelementptr inbounds nuw i8, ptr %29, i64 %31
  %33 = load i8, ptr %32, align 1
  %34 = zext i8 %33 to i64
  %35 = or disjoint i64 %28, %34
  %36 = add i32 %.024, -1
  %.not29 = icmp eq i32 %36, 0
  br i1 %.not29, label %.critedge, label %37

37:                                               ; preds = %.preheader
  %38 = load i32, ptr %16, align 8
  %39 = icmp ult i32 %30, %38
  br i1 %39, label %.preheader, label %.critedge, !llvm.loop !15

.critedge:                                        ; preds = %.preheader, %37
  %40 = shl i32 %36, 3
  %41 = zext nneg i32 %40 to i64
  %42 = shl i64 %35, %41
  br label %43

43:                                               ; preds = %8, %.critedge, %22, %19
  %.0 = phi i64 [ %42, %.critedge ], [ 0, %22 ], [ 0, %19 ], [ 0, %8 ]
  %44 = load i32, ptr @trace_events_enabled_count, align 4
  %.not.i.i = icmp eq i32 %44, 0
  br i1 %.not.i.i, label %trace_fw_cfg_read.exit, label %45, !prof !6

45:                                               ; preds = %43
  %46 = load i16, ptr @_TRACE_FW_CFG_READ_DSTATE, align 2
  %.not3.i.i = icmp eq i16 %46, 0
  br i1 %.not3.i.i, label %trace_fw_cfg_read.exit, label %47

47:                                               ; preds = %45
  %48 = load i32, ptr @qemu_loglevel, align 4
  %49 = and i32 %48, 32768
  %.not4.i.i = icmp eq i32 %49, 0
  br i1 %.not4.i.i, label %trace_fw_cfg_read.exit, label %50

50:                                               ; preds = %47
  %51 = load i8, ptr @message_with_timestamp, align 1, !range !4, !noundef !5
  %52 = trunc nuw i8 %51 to i1
  br i1 %52, label %53, label %59

53:                                               ; preds = %50
  call void @llvm.lifetime.start.p0(i64 16, ptr nonnull %4) #18
  call void @llvm.memset.p0.i64(ptr noundef nonnull align 8 dereferenceable(16) %4, i8 0, i64 16, i1 false), !annotation !7
  %54 = call i32 @gettimeofday(ptr noundef nonnull %4, ptr noundef null) #18
  %55 = tail call i32 @qemu_get_thread_id() #18
  %56 = load i64, ptr %4, align 8
  %57 = getelementptr inbounds nuw i8, ptr %4, i64 8
  %58 = load i64, ptr %57, align 8
  tail call void (ptr, ...) @qemu_log(ptr noundef nonnull @.str.85, i32 noundef %55, i64 noundef %56, i64 noundef %58, ptr noundef %0, i64 noundef %.0) #18
  call void @llvm.lifetime.end.p0(i64 16, ptr nonnull %4) #18
  br label %trace_fw_cfg_read.exit

59:                                               ; preds = %50
  tail call void (ptr, ...) @qemu_log(ptr noundef nonnull @.str.86, ptr noundef %0, i64 noundef %.0) #18
  br label %trace_fw_cfg_read.exit

trace_fw_cfg_read.exit:                           ; preds = %43, %45, %47, %53, %59
  ret i64 %.0
}